target datalayout = "e-m:e-p270:32:32-p271:32:32-p272:64:64-i64:64-i128:128-f80:128-n8:16:32:64-S128"
target triple = "x86_64-pc-linux-gnu"

; Function Attrs: alwaysinline nounwind willreturn memory(none) uwtable
define internal i32 @av_clip_uintp2_c(i32 noundef %0, i32 noundef %1) #3 {
  %3 = alloca i32, align 4
  %4 = alloca i32, align 4
  %5 = alloca i32, align 4
  store i32 %0, ptr %4, align 4, !tbaa !9
  store i32 %1, ptr %5, align 4, !tbaa !9
  %6 = load i32, ptr %4, align 4, !tbaa !9
  %7 = load i32, ptr %5, align 4, !tbaa !9
  %8 = shl i32 1, %7
  %9 = sub i32 %8, 1
  %10 = xor i32 %9, -1
  %11 = and i32 %6, %10
  %12 = icmp ne i32 %11, 0
  br i1 %12, label %13, label %21

13:                                               ; preds = %2
  %14 = load i32, ptr %4, align 4, !tbaa !9
  %15 = xor i32 %14, -1
  %16 = ashr i32 %15, 31
  %17 = load i32, ptr %5, align 4, !tbaa !9
  %18 = shl i32 1, %17
  %19 = sub i32 %18, 1
  %20 = and i32 %16, %19
  store i32 %20, ptr %3, align 4
  br label %23

21:                                               ; preds = %2
  %22 = load i32, ptr %4, align 4, !tbaa !9
  store i32 %22, ptr %3, align 4
  br label %23

23:                                               ; preds = %21, %13
  %24 = load i32, ptr %3, align 4
  ret i32 %24
}

; Function Attrs: nounwind uwtable
define internal void @put_uni_chroma_v_12(ptr noundef %0, i64 noundef %1, ptr noundef %2, i64 noundef %3, i32 noundef %4, ptr noundef %5, ptr noundef %6, i32 noundef %7) #0 {
  %9 = alloca ptr, align 8
  %10 = alloca i64, align 8
  %11 = alloca ptr, align 8
  %12 = alloca i64, align 8
  %13 = alloca i32, align 4
  %14 = alloca ptr, align 8
  %15 = alloca ptr, align 8
  %16 = alloca i32, align 4
  %17 = alloca ptr, align 8
  %18 = alloca ptr, align 8
  %19 = alloca i64, align 8
  %20 = alloca i64, align 8
  %21 = alloca ptr, align 8
  %22 = alloca i32, align 4
  %23 = alloca i32, align 4
  %24 = alloca i32, align 4
  %25 = alloca i32, align 4
  %26 = alloca i32, align 4
  store ptr %0, ptr %9, align 8, !tbaa !144
  store i64 %1, ptr %10, align 8, !tbaa !146
  store ptr %2, ptr %11, align 8, !tbaa !144
  store i64 %3, ptr %12, align 8, !tbaa !146
  store i32 %4, ptr %13, align 4, !tbaa !9
  store ptr %5, ptr %14, align 8, !tbaa !144
  store ptr %6, ptr %15, align 8, !tbaa !144
  store i32 %7, ptr %16, align 4, !tbaa !9
  call void @llvm.lifetime.start.p0(i64 8, ptr %17) #8
  %27 = load ptr, ptr %11, align 8, !tbaa !144
  store ptr %27, ptr %17, align 8, !tbaa !142
  call void @llvm.lifetime.start.p0(i64 8, ptr %18) #8
  %28 = load ptr, ptr %9, align 8, !tbaa !144
  store ptr %28, ptr %18, align 8, !tbaa !142
  call void @llvm.lifetime.start.p0(i64 8, ptr %19) #8
  %29 = load i64, ptr %12, align 8, !tbaa !146
  %30 = udiv i64 %29, 2
  store i64 %30, ptr %19, align 8, !tbaa !146
  call void @llvm.lifetime.start.p0(i64 8, ptr %20) #8
  %31 = load i64, ptr %10, align 8, !tbaa !146
  %32 = udiv i64 %31, 2
  store i64 %32, ptr %20, align 8, !tbaa !146
  call void @llvm.lifetime.start.p0(i64 8, ptr %21) #8
  %33 = load ptr, ptr %15, align 8, !tbaa !144
  store ptr %33, ptr %21, align 8, !tbaa !144
  call void @llvm.lifetime.start.p0(i64 4, ptr %22) #8
  store i32 2, ptr %22, align 4, !tbaa !9
  call void @llvm.lifetime.start.p0(i64 4, ptr %23) #8
  store i32 2, ptr %23, align 4, !tbaa !9
  call void @llvm.lifetime.start.p0(i64 4, ptr %24) #8
  store i32 0, ptr %24, align 4, !tbaa !9
  br label %34

34:                                               ; preds = %119, %8
  %35 = load i32, ptr %24, align 4, !tbaa !9
  %36 = load i32, ptr %13, align 4, !tbaa !9
  %37 = icmp slt i32 %35, %36
  br i1 %37, label %39, label %38

38:                                               ; preds = %34
  store i32 2, ptr %25, align 4
  call void @llvm.lifetime.end.p0(i64 4, ptr %24) #8
  br label %122

39:                                               ; preds = %34
  call void @llvm.lifetime.start.p0(i64 4, ptr %26) #8
  store i32 0, ptr %26, align 4, !tbaa !9
  br label %40

40:                                               ; preds = %109, %39
  %41 = load i32, ptr %26, align 4, !tbaa !9
  %42 = load i32, ptr %16, align 4, !tbaa !9
  %43 = icmp slt i32 %41, %42
  br i1 %43, label %45, label %44

44:                                               ; preds = %40
  store i32 5, ptr %25, align 4
  call void @llvm.lifetime.end.p0(i64 4, ptr %26) #8
  br label %112

45:                                               ; preds = %40
  %46 = load ptr, ptr %21, align 8, !tbaa !144
  %47 = getelementptr inbounds i8, ptr %46, i64 0
  %48 = load i8, ptr %47, align 1, !tbaa !152
  %49 = sext i8 %48 to i32
  %50 = load ptr, ptr %17, align 8, !tbaa !142
  %51 = load i32, ptr %26, align 4, !tbaa !9
  %52 = sext i32 %51 to i64
  %53 = load i64, ptr %19, align 8, !tbaa !146
  %54 = sub nsw i64 %52, %53
  %55 = getelementptr inbounds i16, ptr %50, i64 %54
  %56 = load i16, ptr %55, align 2, !tbaa !148
  %57 = zext i16 %56 to i32
  %58 = mul nsw i32 %49, %57
  %59 = load ptr, ptr %21, align 8, !tbaa !144
  %60 = getelementptr inbounds i8, ptr %59, i64 1
  %61 = load i8, ptr %60, align 1, !tbaa !152
  %62 = sext i8 %61 to i32
  %63 = load ptr, ptr %17, align 8, !tbaa !142
  %64 = load i32, ptr %26, align 4, !tbaa !9
  %65 = sext i32 %64 to i64
  %66 = getelementptr inbounds i16, ptr %63, i64 %65
  %67 = load i16, ptr %66, align 2, !tbaa !148
  %68 = zext i16 %67 to i32
  %69 = mul nsw i32 %62, %68
  %70 = add nsw i32 %58, %69
  %71 = load ptr, ptr %21, align 8, !tbaa !144
  %72 = getelementptr inbounds i8, ptr %71, i64 2
  %73 = load i8, ptr %72, align 1, !tbaa !152
  %74 = sext i8 %73 to i32
  %75 = load ptr, ptr %17, align 8, !tbaa !142
  %76 = load i32, ptr %26, align 4, !tbaa !9
  %77 = sext i32 %76 to i64
  %78 = load i64, ptr %19, align 8, !tbaa !146
  %79 = add nsw i64 %77, %78
  %80 = getelementptr inbounds i16, ptr %75, i64 %79
  %81 = load i16, ptr %80, align 2, !tbaa !148
  %82 = zext i16 %81 to i32
  %83 = mul nsw i32 %74, %82
  %84 = add nsw i32 %70, %83
  %85 = load ptr, ptr %21, align 8, !tbaa !144
  %86 = getelementptr inbounds i8, ptr %85, i64 3
  %87 = load i8, ptr %86, align 1, !tbaa !152
  %88 = sext i8 %87 to i32
  %89 = load ptr, ptr %17, align 8, !tbaa !142
  %90 = load i32, ptr %26, align 4, !tbaa !9
  %91 = sext i32 %90 to i64
  %92 = load i64, ptr %19, align 8, !tbaa !146
  %93 = mul nsw i64 2, %92
  %94 = add nsw i64 %91, %93
  %95 = getelementptr inbounds i16, ptr %89, i64 %94
  %96 = load i16, ptr %95, align 2, !tbaa !148
  %97 = zext i16 %96 to i32
  %98 = mul nsw i32 %88, %97
  %99 = add nsw i32 %84, %98
  %100 = ashr i32 %99, 4
  %101 = add nsw i32 %100, 2
  %102 = ashr i32 %101, 2
  %103 = call i32 @av_clip_uintp2_c(i32 noundef %102, i32 noundef 12) #9
  %104 = trunc i32 %103 to i16
  %105 = load ptr, ptr %18, align 8, !tbaa !142
  %106 = load i32, ptr %26, align 4, !tbaa !9
  %107 = sext i32 %106 to i64
  %108 = getelementptr inbounds i16, ptr %105, i64 %107
  store i16 %104, ptr %108, align 2, !tbaa !148
  br label %109

109:                                              ; preds = %45
  %110 = load i32, ptr %26, align 4, !tbaa !9
  %111 = add nsw i32 %110, 1
  store i32 %111, ptr %26, align 4, !tbaa !9
  br label %40, !llvm.loop !190

112:                                              ; preds = %44
  %113 = load i64, ptr %19, align 8, !tbaa !146
  %114 = load ptr, ptr %17, align 8, !tbaa !142
  %115 = getelementptr inbounds i16, ptr %114, i64 %113
  store ptr %115, ptr %17, align 8, !tbaa !142
  %116 = load i64, ptr %20, align 8, !tbaa !146
  %117 = load ptr, ptr %18, align 8, !tbaa !142
  %118 = getelementptr inbounds i16, ptr %117, i64 %116
  store ptr %118, ptr %18, align 8, !tbaa !142
  br label %119

119:                                              ; preds = %112
  %120 = load i32, ptr %24, align 4, !tbaa !9
  %121 = add nsw i32 %120, 1
  store i32 %121, ptr %24, align 4, !tbaa !9
  br label %34, !llvm.loop !191

122:                                              ; preds = %38
  call void @llvm.lifetime.end.p0(i64 4, ptr %23) #8
  call void @llvm.lifetime.end.p0(i64 4, ptr %22) #8
  call void @llvm.lifetime.end.p0(i64 8, ptr %21) #8
  call void @llvm.lifetime.end.p0(i64 8, ptr %20) #8
  call void @llvm.lifetime.end.p0(i64 8, ptr %19) #8
  call void @llvm.lifetime.end.p0(i64 8, ptr %18) #8
  call void @llvm.lifetime.end.p0(i64 8, ptr %17) #8
  ret void
}