; Function Attrs: nofree norecurse nosync nounwind memory(argmem: readwrite) uwtable
define internal void @put_uni_chroma_v_12(ptr noundef writeonly captures(none) %0, i64 noundef %1, ptr noundef readonly captures(none) %2, i64 noundef %3, i32 noundef %4, ptr readnone captures(none) %5, ptr noundef readonly captures(none) %6, i32 noundef %7) #2 {
  %9 = lshr i64 %3, 1
  %10 = lshr i64 %1, 1
  %11 = icmp sgt i32 %4, 0
  br i1 %11, label %.preheader.lr.ph, label %._crit_edge38

.preheader.lr.ph:                                 ; preds = %8
  %12 = icmp sgt i32 %7, 0
  %13 = getelementptr inbounds nuw i8, ptr %6, i64 1
  %14 = getelementptr inbounds nuw i8, ptr %6, i64 2
  %15 = getelementptr inbounds nuw i8, ptr %6, i64 3
  %16 = and i64 %3, -2
  br i1 %12, label %.preheader.us.preheader, label %._crit_edge38

.preheader.us.preheader:                          ; preds = %.preheader.lr.ph
  %wide.trip.count = zext nneg i32 %7 to i64
  br label %.preheader.us

.preheader.us:                                    ; preds = %.preheader.us.preheader, %._crit_edge.us
  %.03137.us = phi i32 [ %56, %._crit_edge.us ], [ 0, %.preheader.us.preheader ]
  %.03236.us = phi ptr [ %17, %._crit_edge.us ], [ %2, %.preheader.us.preheader ]
  %.03335.us = phi ptr [ %55, %._crit_edge.us ], [ %0, %.preheader.us.preheader ]
  %17 = getelementptr inbounds nuw i16, ptr %.03236.us, i64 %9
  %18 = getelementptr i16, ptr %.03236.us, i64 %16
  br label %19

19:                                               ; preds = %.preheader.us, %19
  %indvars.iv = phi i64 [ 0, %.preheader.us ], [ %indvars.iv.next, %19 ]
  %20 = load i8, ptr %6, align 1, !tbaa !128
  %21 = sext i8 %20 to i32
  %22 = sub nsw i64 %indvars.iv, %9
  %23 = getelementptr inbounds i16, ptr %.03236.us, i64 %22
  %24 = load i16, ptr %23, align 2, !tbaa !124
  %25 = zext i16 %24 to i32
  %26 = mul nsw i32 %25, %21
  %27 = load i8, ptr %13, align 1, !tbaa !128
  %28 = sext i8 %27 to i32
  %29 = getelementptr inbounds nuw i16, ptr %.03236.us, i64 %indvars.iv
  %30 = load i16, ptr %29, align 2, !tbaa !124
  %31 = zext i16 %30 to i32
  %32 = mul nsw i32 %31, %28
  %33 = add nsw i32 %32, %26
  %34 = load i8, ptr %14, align 1, !tbaa !128
  %35 = sext i8 %34 to i32
  %36 = getelementptr inbounds nuw i16, ptr %17, i64 %indvars.iv
  %37 = load i16, ptr %36, align 2, !tbaa !124
  %38 = zext i16 %37 to i32
  %39 = mul nsw i32 %38, %35
  %40 = add nsw i32 %33, %39
  %41 = load i8, ptr %15, align 1, !tbaa !128
  %42 = sext i8 %41 to i32
  %43 = getelementptr i16, ptr %18, i64 %indvars.iv
  %44 = load i16, ptr %43, align 2, !tbaa !124
  %45 = zext i16 %44 to i32
  %46 = mul nsw i32 %45, %42
  %47 = add nsw i32 %40, %46
  %48 = ashr i32 %47, 4
  %49 = add nsw i32 %48, 2
  %50 = ashr i32 %49, 2
  %51 = tail call i32 @llvm.smax.i32(i32 %50, i32 0)
  %52 = tail call i32 @llvm.umin.i32(i32 %51, i32 4095)
  %53 = trunc nuw nsw i32 %52 to i16
  %54 = getelementptr inbounds nuw i16, ptr %.03335.us, i64 %indvars.iv
  store i16 %53, ptr %54, align 2, !tbaa !124
  %indvars.iv.next = add nuw nsw i64 %indvars.iv, 1
  %exitcond.not = icmp eq i64 %indvars.iv.next, %wide.trip.count
  br i1 %exitcond.not, label %._crit_edge.us, label %19, !llvm.loop !166

._crit_edge.us:                                   ; preds = %19
  %55 = getelementptr inbounds nuw i16, ptr %.03335.us, i64 %10
  %56 = add nuw nsw i32 %.03137.us, 1
  %exitcond41.not = icmp eq i32 %56, %4
  br i1 %exitcond41.not, label %._crit_edge38, label %.preheader.us, !llvm.loop !167

._crit_edge38:                                    ; preds = %._crit_edge.us, %.preheader.lr.ph, %8
  ret void
}